target datalayout = "e-m:e-p270:32:32-p271:32:32-p272:64:64-i64:64-i128:128-f80:128-n8:16:32:64-S128"
target triple = "x86_64-unknown-linux-gnu"

%"class.Assimp::MDLImporter" = type <{ %"class.Assimp::BaseImporter", i32, [4 x i8], %"class.std::__cxx11::basic_string", ptr, i32, [4 x i8], ptr, ptr, i32, %"struct.Assimp::MDL::HalfLife::HL1ImportSettings", [2 x i8] }>
%"class.Assimp::BaseImporter" = type { ptr, double, double, %"class.std::__cxx11::basic_string", %"class.std::__exception_ptr::exception_ptr", ptr }
%"class.std::__exception_ptr::exception_ptr" = type { ptr }
%"class.std::__cxx11::basic_string" = type { %"struct.std::__cxx11::basic_string<char>::_Alloc_hider", i64, %union.anon }
%"struct.std::__cxx11::basic_string<char>::_Alloc_hider" = type { ptr }
%union.anon = type { i64, [8 x i8] }
%"struct.Assimp::MDL::HalfLife::HL1ImportSettings" = type { i8, i8, i8, i8, i8, i8, i8, i8, i8, i8 }
%"class.std::allocator.0" = type { i8 }

@.str = private unnamed_addr constant [20 x i8] c"IMPORT_MDL_KEYFRAME\00", align 1
@.str.1 = private unnamed_addr constant [23 x i8] c"IMPORT_GLOBAL_KEYFRAME\00", align 1
@.str.2 = private unnamed_addr constant [20 x i8] c"IMPORT_MDL_COLORMAP\00", align 1
@.str.3 = private unnamed_addr constant [13 x i8] c"colormap.lmp\00", align 1
@.str.4 = private unnamed_addr constant [31 x i8] c"IMPORT_MDL_HL1_READ_ANIMATIONS\00", align 1
@.str.5 = private unnamed_addr constant [37 x i8] c"IMPORT_MDL_HL1_READ_ANIMATION_EVENTS\00", align 1
@.str.6 = private unnamed_addr constant [38 x i8] c"IMPORT_MDL_HL1_READ_BLEND_CONTROLLERS\00", align 1
@.str.7 = private unnamed_addr constant [41 x i8] c"IMPORT_MDL_HL1_READ_SEQUENCE_TRANSITIONS\00", align 1
@.str.8 = private unnamed_addr constant [32 x i8] c"IMPORT_MDL_HL1_READ_ATTACHMENTS\00", align 1
@.str.9 = private unnamed_addr constant [37 x i8] c"IMPORT_MDL_HL1_READ_BONE_CONTROLLERS\00", align 1
@.str.10 = private unnamed_addr constant [29 x i8] c"IMPORT_MDL_HL1_READ_HITBOXES\00", align 1
@.str.11 = private unnamed_addr constant [37 x i8] c"IMPORT_MDL_HL1_READ_MISC_GLOBAL_INFO\00", align 1
@.str.98 = private unnamed_addr constant [50 x i8] c"basic_string: construction from null is not valid\00", align 1

; Function Attrs: mustprogress nounwind uwtable
define linkonce_odr noundef i64 @_ZNSt11char_traitsIcE6lengthEPKc(ptr noundef %__s) #0 comdat align 2 {
entry:
  %__s.addr = alloca ptr, align 8
  store ptr %__s, ptr %__s.addr, align 8
  %0 = load ptr, ptr %__s.addr, align 8
  %call = call i64 @strlen(ptr noundef %0) #16
  ret i64 %call
}

; Function Attrs: mustprogress nounwind uwtable
define linkonce_odr void @_ZNSt7__cxx1112basic_stringIcSt11char_traitsIcESaIcEE12_Alloc_hiderD2Ev(ptr noundef nonnull align 8 dereferenceable(8) %this) unnamed_addr #0 comdat align 2 {
entry:
  %this.addr = alloca ptr, align 8
  store ptr %this, ptr %this.addr, align 8
  %this1 = load ptr, ptr %this.addr, align 8
  call void @_ZNSaIcED2Ev(ptr noundef nonnull align 1 dereferenceable(1) %this1) #16
  ret void
}

; Function Attrs: mustprogress uwtable
define linkonce_odr noundef zeroext i1 @_ZNK6Assimp8Importer15GetPropertyBoolEPKcb(ptr noundef nonnull align 8 dereferenceable(8) %this, ptr noundef %szName, i1 noundef zeroext %bErrorReturn) #2 comdat align 2 {
entry:
  %this.addr = alloca ptr, align 8
  %szName.addr = alloca ptr, align 8
  %bErrorReturn.addr = alloca i8, align 1
  store ptr %this, ptr %this.addr, align 8
  store ptr %szName, ptr %szName.addr, align 8
  %frombool = zext i1 %bErrorReturn to i8
  store i8 %frombool, ptr %bErrorReturn.addr, align 1
  %this1 = load ptr, ptr %this.addr, align 8
  %0 = load ptr, ptr %szName.addr, align 8
  %1 = load i8, ptr %bErrorReturn.addr, align 1
  %tobool = trunc i8 %1 to i1
  %conv = zext i1 %tobool to i32
  %call = call noundef i32 @_ZNK6Assimp8Importer18GetPropertyIntegerEPKci(ptr noundef nonnull align 8 dereferenceable(8) %this1, ptr noundef %0, i32 noundef %conv)
  %cmp = icmp ne i32 %call, 0
  ret i1 %cmp
}

; Function Attrs: mustprogress uwtable
define linkonce_odr void @_ZNSt7__cxx1112basic_stringIcSt11char_traitsIcESaIcEEC2IS3_EEPKcRKS3_(ptr noundef nonnull align 8 dereferenceable(32) %this, ptr noundef %__s, ptr noundef nonnull align 1 dereferenceable(1) %__a) unnamed_addr #2 comdat align 2 personality ptr @__gxx_personality_v0 {
entry:
  %this.addr = alloca ptr, align 8
  %__s.addr = alloca ptr, align 8
  %__a.addr = alloca ptr, align 8
  %exn.slot = alloca ptr, align 8
  %ehselector.slot = alloca i32, align 4
  %__end = alloca ptr, align 8
  store ptr %this, ptr %this.addr, align 8
  store ptr %__s, ptr %__s.addr, align 8
  store ptr %__a, ptr %__a.addr, align 8
  %this1 = load ptr, ptr %this.addr, align 8
  %_M_dataplus = getelementptr inbounds %"class.std::__cxx11::basic_string", ptr %this1, i32 0, i32 0
  %call = call noundef ptr @_ZNSt7__cxx1112basic_stringIcSt11char_traitsIcESaIcEE13_M_local_dataEv(ptr noundef nonnull align 8 dereferenceable(32) %this1)
  %0 = load ptr, ptr %__a.addr, align 8
  call void @_ZNSt7__cxx1112basic_stringIcSt11char_traitsIcESaIcEE12_Alloc_hiderC1EPcRKS3_(ptr noundef nonnull align 8 dereferenceable(8) %_M_dataplus, ptr noundef %call, ptr noundef nonnull align 1 dereferenceable(1) %0)
  %1 = load ptr, ptr %__s.addr, align 8
  %cmp = icmp eq ptr %1, null
  br i1 %cmp, label %if.then, label %if.end

if.then:                                          ; preds = %entry
  invoke void @_ZSt19__throw_logic_errorPKc(ptr noundef @.str.98) #17
          to label %invoke.cont unwind label %lpad

invoke.cont:                                      ; preds = %if.then
  unreachable

lpad:                                             ; preds = %invoke.cont2, %if.end, %if.then
  %2 = landingpad { ptr, i32 }
          cleanup
  %3 = extractvalue { ptr, i32 } %2, 0
  store ptr %3, ptr %exn.slot, align 8
  %4 = extractvalue { ptr, i32 } %2, 1
  store i32 %4, ptr %ehselector.slot, align 4
  call void @_ZNSt7__cxx1112basic_stringIcSt11char_traitsIcESaIcEE12_Alloc_hiderD2Ev(ptr noundef nonnull align 8 dereferenceable(8) %_M_dataplus) #16
  br label %eh.resume

if.end:                                           ; preds = %entry
  %5 = load ptr, ptr %__s.addr, align 8
  %6 = load ptr, ptr %__s.addr, align 8
  %call3 = invoke noundef i64 @_ZNSt11char_traitsIcE6lengthEPKc(ptr noundef %6)
          to label %invoke.cont2 unwind label %lpad

invoke.cont2:                                     ; preds = %if.end
  %add.ptr = getelementptr inbounds i8, ptr %5, i64 %call3
  store ptr %add.ptr, ptr %__end, align 8
  %7 = load ptr, ptr %__s.addr, align 8
  %8 = load ptr, ptr %__end, align 8
  invoke void @_ZNSt7__cxx1112basic_stringIcSt11char_traitsIcESaIcEE12_M_constructIPKcEEvT_S8_St20forward_iterator_tag(ptr noundef nonnull align 8 dereferenceable(32) %this1, ptr noundef %7, ptr noundef %8)
          to label %invoke.cont4 unwind label %lpad

invoke.cont4:                                     ; preds = %invoke.cont2
  ret void

eh.resume:                                        ; preds = %lpad
  %exn = load ptr, ptr %exn.slot, align 8
  %sel = load i32, ptr %ehselector.slot, align 4
  %lpad.val = insertvalue { ptr, i32 } poison, ptr %exn, 0
  %lpad.val5 = insertvalue { ptr, i32 } %lpad.val, i32 %sel, 1
  resume { ptr, i32 } %lpad.val5
}

; Function Attrs: mustprogress uwtable
define hidden void @_ZN6Assimp11MDLImporter15SetupPropertiesEPKNS_8ImporterE(ptr noundef nonnull align 8 dereferenceable(158) %this, ptr noundef %pImp) unnamed_addr #2 align 2 personality ptr @__gxx_personality_v0 {
entry:
  %this.addr = alloca ptr, align 8
  %pImp.addr = alloca ptr, align 8
  %ref.tmp = alloca %"class.std::__cxx11::basic_string", align 8
  %ref.tmp5 = alloca %"class.std::__cxx11::basic_string", align 8
  %ref.tmp6 = alloca %"class.std::allocator.0", align 1
  %exn.slot = alloca ptr, align 8
  %ehselector.slot = alloca i32, align 4
  store ptr %this, ptr %this.addr, align 8
  store ptr %pImp, ptr %pImp.addr, align 8
  %this1 = load ptr, ptr %this.addr, align 8
  %0 = load ptr, ptr %pImp.addr, align 8
  %call = call noundef i32 @_ZNK6Assimp8Importer18GetPropertyIntegerEPKci(ptr noundef nonnull align 8 dereferenceable(8) %0, ptr noundef @.str, i32 noundef -1)
  %configFrameID = getelementptr inbounds %"class.Assimp::MDLImporter", ptr %this1, i32 0, i32 1
  store i32 %call, ptr %configFrameID, align 8
  %configFrameID2 = getelementptr inbounds %"class.Assimp::MDLImporter", ptr %this1, i32 0, i32 1
  %1 = load i32, ptr %configFrameID2, align 8
  %cmp = icmp eq i32 -1, %1
  br i1 %cmp, label %if.then, label %if.end

if.then:                                          ; preds = %entry
  %2 = load ptr, ptr %pImp.addr, align 8
  %call3 = call noundef i32 @_ZNK6Assimp8Importer18GetPropertyIntegerEPKci(ptr noundef nonnull align 8 dereferenceable(8) %2, ptr noundef @.str.1, i32 noundef 0)
  %configFrameID4 = getelementptr inbounds %"class.Assimp::MDLImporter", ptr %this1, i32 0, i32 1
  store i32 %call3, ptr %configFrameID4, align 8
  br label %if.end

if.end:                                           ; preds = %if.then, %entry
  %3 = load ptr, ptr %pImp.addr, align 8
  call void @_ZNSaIcEC1Ev(ptr noundef nonnull align 1 dereferenceable(1) %ref.tmp6) #16
  invoke void @_ZNSt7__cxx1112basic_stringIcSt11char_traitsIcESaIcEEC2IS3_EEPKcRKS3_(ptr noundef nonnull align 8 dereferenceable(32) %ref.tmp5, ptr noundef @.str.3, ptr noundef nonnull align 1 dereferenceable(1) %ref.tmp6)
          to label %invoke.cont unwind label %lpad

invoke.cont:                                      ; preds = %if.end
  invoke void @_ZNK6Assimp8Importer17GetPropertyStringEPKcRKNSt7__cxx1112basic_stringIcSt11char_traitsIcESaIcEEE(ptr sret(%"class.std::__cxx11::basic_string") align 8 %ref.tmp, ptr noundef nonnull align 8 dereferenceable(8) %3, ptr noundef @.str.2, ptr noundef nonnull align 8 dereferenceable(32) %ref.tmp5)
          to label %invoke.cont8 unwind label %lpad7

invoke.cont8:                                     ; preds = %invoke.cont
  %configPalette = getelementptr inbounds %"class.Assimp::MDLImporter", ptr %this1, i32 0, i32 3
  %call9 = call noundef nonnull align 8 dereferenceable(32) ptr @_ZNSt7__cxx1112basic_stringIcSt11char_traitsIcESaIcEEaSEOS4_(ptr noundef nonnull align 8 dereferenceable(32) %configPalette, ptr noundef nonnull align 8 dereferenceable(32) %ref.tmp) #16
  call void @_ZNSt7__cxx1112basic_stringIcSt11char_traitsIcESaIcEED1Ev(ptr noundef nonnull align 8 dereferenceable(32) %ref.tmp) #16
  call void @_ZNSt7__cxx1112basic_stringIcSt11char_traitsIcESaIcEED1Ev(ptr noundef nonnull align 8 dereferenceable(32) %ref.tmp5) #16
  call void @_ZNSaIcED1Ev(ptr noundef nonnull align 1 dereferenceable(1) %ref.tmp6) #16
  %4 = load ptr, ptr %pImp.addr, align 8
  %call10 = call noundef zeroext i1 @_ZNK6Assimp8Importer15GetPropertyBoolEPKcb(ptr noundef nonnull align 8 dereferenceable(8) %4, ptr noundef @.str.4, i1 noundef zeroext true)
  %mHL1ImportSettings = getelementptr inbounds %"class.Assimp::MDLImporter", ptr %this1, i32 0, i32 10
  %read_animations = getelementptr inbounds %"struct.Assimp::MDL::HalfLife::HL1ImportSettings", ptr %mHL1ImportSettings, i32 0, i32 0
  %frombool = zext i1 %call10 to i8
  store i8 %frombool, ptr %read_animations, align 4
  %mHL1ImportSettings11 = getelementptr inbounds %"class.Assimp::MDLImporter", ptr %this1, i32 0, i32 10
  %read_animations12 = getelementptr inbounds %"struct.Assimp::MDL::HalfLife::HL1ImportSettings", ptr %mHL1ImportSettings11, i32 0, i32 0
  %5 = load i8, ptr %read_animations12, align 4
  %tobool = trunc i8 %5 to i1
  br i1 %tobool, label %if.then13, label %if.end23

if.then13:                                        ; preds = %invoke.cont8
  %6 = load ptr, ptr %pImp.addr, align 8
  %call14 = call noundef zeroext i1 @_ZNK6Assimp8Importer15GetPropertyBoolEPKcb(ptr noundef nonnull align 8 dereferenceable(8) %6, ptr noundef @.str.5, i1 noundef zeroext true)
  %mHL1ImportSettings15 = getelementptr inbounds %"class.Assimp::MDLImporter", ptr %this1, i32 0, i32 10
  %read_animation_events = getelementptr inbounds %"struct.Assimp::MDL::HalfLife::HL1ImportSettings", ptr %mHL1ImportSettings15, i32 0, i32 1
  %frombool16 = zext i1 %call14 to i8
  store i8 %frombool16, ptr %read_animation_events, align 1
  %7 = load ptr, ptr %pImp.addr, align 8
  %call17 = call noundef zeroext i1 @_ZNK6Assimp8Importer15GetPropertyBoolEPKcb(ptr noundef nonnull align 8 dereferenceable(8) %7, ptr noundef @.str.6, i1 noundef zeroext true)
  %mHL1ImportSettings18 = getelementptr inbounds %"class.Assimp::MDLImporter", ptr %this1, i32 0, i32 10
  %read_blend_controllers = getelementptr inbounds %"struct.Assimp::MDL::HalfLife::HL1ImportSettings", ptr %mHL1ImportSettings18, i32 0, i32 2
  %frombool19 = zext i1 %call17 to i8
  store i8 %frombool19, ptr %read_blend_controllers, align 2
  %8 = load ptr, ptr %pImp.addr, align 8
  %call20 = call noundef zeroext i1 @_ZNK6Assimp8Importer15GetPropertyBoolEPKcb(ptr noundef nonnull align 8 dereferenceable(8) %8, ptr noundef @.str.7, i1 noundef zeroext true)
  %mHL1ImportSettings21 = getelementptr inbounds %"class.Assimp::MDLImporter", ptr %this1, i32 0, i32 10
  %read_sequence_transitions = getelementptr inbounds %"struct.Assimp::MDL::HalfLife::HL1ImportSettings", ptr %mHL1ImportSettings21, i32 0, i32 4
  %frombool22 = zext i1 %call20 to i8
  store i8 %frombool22, ptr %read_sequence_transitions, align 4
  br label %if.end23

lpad:                                             ; preds = %if.end
  %9 = landingpad { ptr, i32 }
          cleanup
  %10 = extractvalue { ptr, i32 } %9, 0
  store ptr %10, ptr %exn.slot, align 8
  %11 = extractvalue { ptr, i32 } %9, 1
  store i32 %11, ptr %ehselector.slot, align 4
  br label %ehcleanup

lpad7:                                            ; preds = %invoke.cont
  %12 = landingpad { ptr, i32 }
          cleanup
  %13 = extractvalue { ptr, i32 } %12, 0
  store ptr %13, ptr %exn.slot, align 8
  %14 = extractvalue { ptr, i32 } %12, 1
  store i32 %14, ptr %ehselector.slot, align 4
  call void @_ZNSt7__cxx1112basic_stringIcSt11char_traitsIcESaIcEED1Ev(ptr noundef nonnull align 8 dereferenceable(32) %ref.tmp5) #16
  br label %ehcleanup

ehcleanup:                                        ; preds = %lpad7, %lpad
  call void @_ZNSaIcED1Ev(ptr noundef nonnull align 1 dereferenceable(1) %ref.tmp6) #16
  br label %eh.resume

if.end23:                                         ; preds = %if.then13, %invoke.cont8
  %15 = load ptr, ptr %pImp.addr, align 8
  %call24 = call noundef zeroext i1 @_ZNK6Assimp8Importer15GetPropertyBoolEPKcb(ptr noundef nonnull align 8 dereferenceable(8) %15, ptr noundef @.str.8, i1 noundef zeroext true)
  %mHL1ImportSettings25 = getelementptr inbounds %"class.Assimp::MDLImporter", ptr %this1, i32 0, i32 10
  %read_attachments = getelementptr inbounds %"struct.Assimp::MDL::HalfLife::HL1ImportSettings", ptr %mHL1ImportSettings25, i32 0, i32 5
  %frombool26 = zext i1 %call24 to i8
  store i8 %frombool26, ptr %read_attachments, align 1
  %16 = load ptr, ptr %pImp.addr, align 8
  %call27 = call noundef zeroext i1 @_ZNK6Assimp8Importer15GetPropertyBoolEPKcb(ptr noundef nonnull align 8 dereferenceable(8) %16, ptr noundef @.str.9, i1 noundef zeroext true)
  %mHL1ImportSettings28 = getelementptr inbounds %"class.Assimp::MDLImporter", ptr %this1, i32 0, i32 10
  %read_bone_controllers = getelementptr inbounds %"struct.Assimp::MDL::HalfLife::HL1ImportSettings", ptr %mHL1ImportSettings28, i32 0, i32 6
  %frombool29 = zext i1 %call27 to i8
  store i8 %frombool29, ptr %read_bone_controllers, align 2
  %17 = load ptr, ptr %pImp.addr, align 8
  %call30 = call noundef zeroext i1 @_ZNK6Assimp8Importer15GetPropertyBoolEPKcb(ptr noundef nonnull align 8 dereferenceable(8) %17, ptr noundef @.str.10, i1 noundef zeroext true)
  %mHL1ImportSettings31 = getelementptr inbounds %"class.Assimp::MDLImporter", ptr %this1, i32 0, i32 10
  %read_hitboxes = getelementptr inbounds %"struct.Assimp::MDL::HalfLife::HL1ImportSettings", ptr %mHL1ImportSettings31, i32 0, i32 7
  %frombool32 = zext i1 %call30 to i8
  store i8 %frombool32, ptr %read_hitboxes, align 1
  %18 = load ptr, ptr %pImp.addr, align 8
  %call33 = call noundef zeroext i1 @_ZNK6Assimp8Importer15GetPropertyBoolEPKcb(ptr noundef nonnull align 8 dereferenceable(8) %18, ptr noundef @.str.11, i1 noundef zeroext true)
  %mHL1ImportSettings34 = getelementptr inbounds %"class.Assimp::MDLImporter", ptr %this1, i32 0, i32 10
  %read_misc_global_info = getelementptr inbounds %"struct.Assimp::MDL::HalfLife::HL1ImportSettings", ptr %mHL1ImportSettings34, i32 0, i32 9
  %frombool35 = zext i1 %call33 to i8
  store i8 %frombool35, ptr %read_misc_global_info, align 1
  ret void

eh.resume:                                        ; preds = %ehcleanup
  %exn = load ptr, ptr %exn.slot, align 8
  %sel = load i32, ptr %ehselector.slot, align 4
  %lpad.val = insertvalue { ptr, i32 } poison, ptr %exn, 0
  %lpad.val36 = insertvalue { ptr, i32 } %lpad.val, i32 %sel, 1
  resume { ptr, i32 } %lpad.val36
}