; Function Attrs: mustprogress uwtable
define hidden void @_ZN6Assimp11MDLImporter15SetupPropertiesEPKNS_8ImporterE(ptr noundef nonnull align 8 dereferenceable(158) %this, ptr noundef nonnull %pImp) unnamed_addr #2 align 2 personality ptr @__gxx_personality_v0 {
entry:
  %ref.tmp = alloca %"class.std::__cxx11::basic_string", align 8
  %ref.tmp5 = alloca %"class.std::__cxx11::basic_string", align 8
  %ref.tmp6 = alloca %"class.std::allocator.0", align 1
  %call = tail call noundef i32 @_ZNK6Assimp8Importer18GetPropertyIntegerEPKci(ptr noundef nonnull align 8 dereferenceable(8) %pImp, ptr noundef nonnull @.str, i32 noundef -1)
  %configFrameID = getelementptr inbounds i8, ptr %this, i64 72
  store i32 %call, ptr %configFrameID, align 8
  %cmp = icmp eq i32 %call, -1
  br i1 %cmp, label %if.then, label %if.end

if.then:                                          ; preds = %entry
  %call3 = tail call noundef i32 @_ZNK6Assimp8Importer18GetPropertyIntegerEPKci(ptr noundef nonnull align 8 dereferenceable(8) %pImp, ptr noundef nonnull @.str.1, i32 noundef 0)
  store i32 %call3, ptr %configFrameID, align 8
  br label %if.end

if.end:                                           ; preds = %if.then, %entry
  call void @_ZNSaIcEC1Ev(ptr noundef nonnull align 1 dereferenceable(1) %ref.tmp6) #24
  %call.i12 = invoke noundef ptr @_ZNSt7__cxx1112basic_stringIcSt11char_traitsIcESaIcEE13_M_local_dataEv(ptr noundef nonnull align 8 dereferenceable(32) %ref.tmp5)
          to label %call.i.noexc unwind label %lpad

call.i.noexc:                                     ; preds = %if.end
  invoke void @_ZNSt7__cxx1112basic_stringIcSt11char_traitsIcESaIcEE12_Alloc_hiderC1EPcRKS3_(ptr noundef nonnull align 8 dereferenceable(8) %ref.tmp5, ptr noundef %call.i12, ptr noundef nonnull align 1 dereferenceable(1) %ref.tmp6)
          to label %.noexc unwind label %lpad

.noexc:                                           ; preds = %call.i.noexc
  invoke void @_ZNSt7__cxx1112basic_stringIcSt11char_traitsIcESaIcEE12_M_constructIPKcEEvT_S8_St20forward_iterator_tag(ptr noundef nonnull align 8 dereferenceable(32) %ref.tmp5, ptr noundef nonnull @.str.3, ptr noundef nonnull getelementptr inbounds ([13 x i8], ptr @.str.3, i64 0, i64 12))
          to label %invoke.cont unwind label %lpad.i

lpad.i:                                           ; preds = %.noexc
  %0 = landingpad { ptr, i32 }
          cleanup
  call void @_ZNSaIcED2Ev(ptr noundef nonnull align 1 dereferenceable(1) %ref.tmp5) #24
  br label %ehcleanup

invoke.cont:                                      ; preds = %.noexc
  invoke void @_ZNK6Assimp8Importer17GetPropertyStringEPKcRKNSt7__cxx1112basic_stringIcSt11char_traitsIcESaIcEEE(ptr nonnull sret(%"class.std::__cxx11::basic_string") align 8 %ref.tmp, ptr noundef nonnull align 8 dereferenceable(8) %pImp, ptr noundef nonnull @.str.2, ptr noundef nonnull align 8 dereferenceable(32) %ref.tmp5)
          to label %invoke.cont8 unwind label %lpad7

invoke.cont8:                                     ; preds = %invoke.cont
  %configPalette = getelementptr inbounds i8, ptr %this, i64 80
  %call9 = call noundef nonnull align 8 dereferenceable(32) ptr @_ZNSt7__cxx1112basic_stringIcSt11char_traitsIcESaIcEEaSEOS4_(ptr noundef nonnull align 8 dereferenceable(32) %configPalette, ptr noundef nonnull align 8 dereferenceable(32) %ref.tmp) #24
  call void @_ZNSt7__cxx1112basic_stringIcSt11char_traitsIcESaIcEED1Ev(ptr noundef nonnull align 8 dereferenceable(32) %ref.tmp) #24
  call void @_ZNSt7__cxx1112basic_stringIcSt11char_traitsIcESaIcEED1Ev(ptr noundef nonnull align 8 dereferenceable(32) %ref.tmp5) #24
  call void @_ZNSaIcED1Ev(ptr noundef nonnull align 1 dereferenceable(1) %ref.tmp6) #24
  %call.i = call noundef i32 @_ZNK6Assimp8Importer18GetPropertyIntegerEPKci(ptr noundef nonnull align 8 dereferenceable(8) %pImp, ptr noundef nonnull @.str.4, i32 noundef 1)
  %cmp.i = icmp ne i32 %call.i, 0
  %mHL1ImportSettings = getelementptr inbounds i8, ptr %this, i64 148
  %frombool = zext i1 %cmp.i to i8
  store i8 %frombool, ptr %mHL1ImportSettings, align 4
  br i1 %cmp.i, label %if.then13, label %if.end23

if.then13:                                        ; preds = %invoke.cont8
  %call.i13 = call noundef i32 @_ZNK6Assimp8Importer18GetPropertyIntegerEPKci(ptr noundef nonnull align 8 dereferenceable(8) %pImp, ptr noundef nonnull @.str.5, i32 noundef 1)
  %cmp.i14 = icmp ne i32 %call.i13, 0
  %read_animation_events = getelementptr inbounds i8, ptr %this, i64 149
  %frombool16 = zext i1 %cmp.i14 to i8
  store i8 %frombool16, ptr %read_animation_events, align 1
  %call.i15 = call noundef i32 @_ZNK6Assimp8Importer18GetPropertyIntegerEPKci(ptr noundef nonnull align 8 dereferenceable(8) %pImp, ptr noundef nonnull @.str.6, i32 noundef 1)
  %cmp.i16 = icmp ne i32 %call.i15, 0
  %read_blend_controllers = getelementptr inbounds i8, ptr %this, i64 150
  %frombool19 = zext i1 %cmp.i16 to i8
  store i8 %frombool19, ptr %read_blend_controllers, align 2
  %call.i17 = call noundef i32 @_ZNK6Assimp8Importer18GetPropertyIntegerEPKci(ptr noundef nonnull align 8 dereferenceable(8) %pImp, ptr noundef nonnull @.str.7, i32 noundef 1)
  %cmp.i18 = icmp ne i32 %call.i17, 0
  %read_sequence_transitions = getelementptr inbounds i8, ptr %this, i64 152
  %frombool22 = zext i1 %cmp.i18 to i8
  store i8 %frombool22, ptr %read_sequence_transitions, align 8
  br label %if.end23

lpad:                                             ; preds = %call.i.noexc, %if.end
  %1 = landingpad { ptr, i32 }
          cleanup
  br label %ehcleanup

lpad7:                                            ; preds = %invoke.cont
  %2 = landingpad { ptr, i32 }
          cleanup
  call void @_ZNSt7__cxx1112basic_stringIcSt11char_traitsIcESaIcEED1Ev(ptr noundef nonnull align 8 dereferenceable(32) %ref.tmp5) #24
  br label %ehcleanup

ehcleanup:                                        ; preds = %lpad, %lpad.i, %lpad7
  %.pn = phi { ptr, i32 } [ %2, %lpad7 ], [ %1, %lpad ], [ %0, %lpad.i ]
  call void @_ZNSaIcED1Ev(ptr noundef nonnull align 1 dereferenceable(1) %ref.tmp6) #24
  resume { ptr, i32 } %.pn

if.end23:                                         ; preds = %if.then13, %invoke.cont8
  %call.i19 = call noundef i32 @_ZNK6Assimp8Importer18GetPropertyIntegerEPKci(ptr noundef nonnull align 8 dereferenceable(8) %pImp, ptr noundef nonnull @.str.8, i32 noundef 1)
  %cmp.i20 = icmp ne i32 %call.i19, 0
  %read_attachments = getelementptr inbounds i8, ptr %this, i64 153
  %frombool26 = zext i1 %cmp.i20 to i8
  store i8 %frombool26, ptr %read_attachments, align 1
  %call.i21 = call noundef i32 @_ZNK6Assimp8Importer18GetPropertyIntegerEPKci(ptr noundef nonnull align 8 dereferenceable(8) %pImp, ptr noundef nonnull @.str.9, i32 noundef 1)
  %cmp.i22 = icmp ne i32 %call.i21, 0
  %read_bone_controllers = getelementptr inbounds i8, ptr %this, i64 154
  %frombool29 = zext i1 %cmp.i22 to i8
  store i8 %frombool29, ptr %read_bone_controllers, align 2
  %call.i23 = call noundef i32 @_ZNK6Assimp8Importer18GetPropertyIntegerEPKci(ptr noundef nonnull align 8 dereferenceable(8) %pImp, ptr noundef nonnull @.str.10, i32 noundef 1)
  %cmp.i24 = icmp ne i32 %call.i23, 0
  %read_hitboxes = getelementptr inbounds i8, ptr %this, i64 155
  %frombool32 = zext i1 %cmp.i24 to i8
  store i8 %frombool32, ptr %read_hitboxes, align 1
  %call.i25 = call noundef i32 @_ZNK6Assimp8Importer18GetPropertyIntegerEPKci(ptr noundef nonnull align 8 dereferenceable(8) %pImp, ptr noundef nonnull @.str.11, i32 noundef 1)
  %cmp.i26 = icmp ne i32 %call.i25, 0
  %read_misc_global_info = getelementptr inbounds i8, ptr %this, i64 157
  %frombool35 = zext i1 %cmp.i26 to i8
  store i8 %frombool35, ptr %read_misc_global_info, align 1
  ret void
}